target datalayout = "e-m:e-p270:32:32-p271:32:32-p272:64:64-i64:64-i128:128-f80:128-n8:16:32:64-S128"
target triple = "x86_64-pc-linux-gnu"

%struct._lv_fragment_manager_t = type { ptr, %struct.lv_ll_t, %struct.lv_ll_t }
%struct.lv_ll_t = type { i32, ptr, ptr }
%struct._lv_fragment_managed_states_t = type { ptr, ptr, ptr, ptr, i8, i8, i8 }
%struct._lv_fragment_stack_item_t = type { ptr }

; Function Attrs: nounwind uwtable
define internal void @item_create_obj(ptr noundef %0) #0 {
  %2 = alloca ptr, align 8
  store ptr %0, ptr %2, align 8, !tbaa !3
  br label %3

3:                                                ; preds = %1
  %4 = load ptr, ptr %2, align 8, !tbaa !3
  %5 = getelementptr inbounds nuw %struct._lv_fragment_managed_states_t, ptr %4, i32 0, i32 3
  %6 = load ptr, ptr %5, align 8, !tbaa !13
  %7 = icmp ne ptr %6, null
  br i1 %7, label %12, label %8

8:                                                ; preds = %3
  br label %9

9:                                                ; preds = %8
  br label %10

10:                                               ; preds = %9
  br label %11

11:                                               ; preds = %10, %11
  br label %11

12:                                               ; preds = %3
  br label %13

13:                                               ; preds = %12
  %14 = load ptr, ptr %2, align 8, !tbaa !3
  %15 = getelementptr inbounds nuw %struct._lv_fragment_managed_states_t, ptr %14, i32 0, i32 3
  %16 = load ptr, ptr %15, align 8, !tbaa !13
  %17 = load ptr, ptr %2, align 8, !tbaa !3
  %18 = getelementptr inbounds nuw %struct._lv_fragment_managed_states_t, ptr %17, i32 0, i32 2
  %19 = load ptr, ptr %18, align 8, !tbaa !28
  %20 = icmp ne ptr %19, null
  br i1 %20, label %21, label %26

21:                                               ; preds = %13
  %22 = load ptr, ptr %2, align 8, !tbaa !3
  %23 = getelementptr inbounds nuw %struct._lv_fragment_managed_states_t, ptr %22, i32 0, i32 2
  %24 = load ptr, ptr %23, align 8, !tbaa !28
  %25 = load ptr, ptr %24, align 8, !tbaa !3
  br label %27

26:                                               ; preds = %13
  br label %27

27:                                               ; preds = %26, %21
  %28 = phi ptr [ %25, %21 ], [ null, %26 ]
  %29 = call ptr @lv_fragment_create_obj(ptr noundef %16, ptr noundef %28)
  ret void
}

; Function Attrs: nounwind uwtable
define void @lv_fragment_manager_create_obj(ptr noundef %0) #0 {
  %2 = alloca ptr, align 8
  %3 = alloca ptr, align 8
  %4 = alloca ptr, align 8
  store ptr %0, ptr %2, align 8, !tbaa !3
  br label %5

5:                                                ; preds = %1
  %6 = load ptr, ptr %2, align 8, !tbaa !3
  %7 = icmp ne ptr %6, null
  br i1 %7, label %12, label %8

8:                                                ; preds = %5
  br label %9

9:                                                ; preds = %8
  br label %10

10:                                               ; preds = %9
  br label %11

11:                                               ; preds = %10, %11
  br label %11

12:                                               ; preds = %5
  br label %13

13:                                               ; preds = %12
  call void @llvm.lifetime.start.p0(i64 8, ptr %3) #4
  %14 = load ptr, ptr %2, align 8, !tbaa !3
  %15 = getelementptr inbounds nuw %struct._lv_fragment_manager_t, ptr %14, i32 0, i32 2
  %16 = call ptr @lv_ll_get_tail(ptr noundef %15)
  store ptr %16, ptr %3, align 8, !tbaa !3
  call void @llvm.lifetime.start.p0(i64 8, ptr %4) #4
  store ptr null, ptr %4, align 8, !tbaa !3
  %17 = load ptr, ptr %2, align 8, !tbaa !3
  %18 = getelementptr inbounds nuw %struct._lv_fragment_manager_t, ptr %17, i32 0, i32 1
  %19 = call ptr @lv_ll_get_head(ptr noundef %18)
  store ptr %19, ptr %4, align 8, !tbaa !3
  br label %20

20:                                               ; preds = %37, %13
  %21 = load ptr, ptr %4, align 8, !tbaa !3
  %22 = icmp ne ptr %21, null
  br i1 %22, label %23, label %42

23:                                               ; preds = %20
  %24 = load ptr, ptr %4, align 8, !tbaa !3
  %25 = getelementptr inbounds nuw %struct._lv_fragment_managed_states_t, ptr %24, i32 0, i32 6
  %26 = load i8, ptr %25, align 2, !tbaa !22, !range !23, !noundef !24
  %27 = trunc i8 %26 to i1
  br i1 %27, label %28, label %35

28:                                               ; preds = %23
  %29 = load ptr, ptr %3, align 8, !tbaa !3
  %30 = getelementptr inbounds nuw %struct._lv_fragment_stack_item_t, ptr %29, i32 0, i32 0
  %31 = load ptr, ptr %30, align 8, !tbaa !25
  %32 = load ptr, ptr %4, align 8, !tbaa !3
  %33 = icmp ne ptr %31, %32
  br i1 %33, label %34, label %35

34:                                               ; preds = %28
  br label %37

35:                                               ; preds = %28, %23
  %36 = load ptr, ptr %4, align 8, !tbaa !3
  call void @item_create_obj(ptr noundef %36)
  br label %37

37:                                               ; preds = %35, %34
  %38 = load ptr, ptr %2, align 8, !tbaa !3
  %39 = getelementptr inbounds nuw %struct._lv_fragment_manager_t, ptr %38, i32 0, i32 1
  %40 = load ptr, ptr %4, align 8, !tbaa !3
  %41 = call ptr @lv_ll_get_next(ptr noundef %39, ptr noundef %40)
  store ptr %41, ptr %4, align 8, !tbaa !3
  br label %20, !llvm.loop !27

42:                                               ; preds = %20
  call void @llvm.lifetime.end.p0(i64 8, ptr %4) #4
  call void @llvm.lifetime.end.p0(i64 8, ptr %3) #4
  ret void
}