; Function Attrs: nounwind uwtable
define void @lv_fragment_manager_create_obj(ptr noundef %0) local_unnamed_addr #0 {
  %.not = icmp eq ptr %0, null
  br i1 %.not, label %.preheader, label %2

.preheader:                                       ; preds = %1, %.preheader
  br label %.preheader

2:                                                ; preds = %1
  %3 = getelementptr inbounds nuw i8, ptr %0, i64 32
  %4 = tail call ptr @lv_ll_get_tail(ptr noundef nonnull %3) #3
  %5 = getelementptr inbounds nuw i8, ptr %0, i64 8
  %6 = tail call ptr @lv_ll_get_head(ptr noundef nonnull %5) #3
  %.not1113 = icmp eq ptr %6, null
  br i1 %.not1113, label %._crit_edge, label %.lr.ph

.lr.ph:                                           ; preds = %2, %22
  %.014 = phi ptr [ %23, %22 ], [ %6, %2 ]
  %7 = getelementptr inbounds nuw i8, ptr %.014, i64 34
  %8 = load i8, ptr %7, align 2, !tbaa !21, !range !22, !noundef !23
  %9 = trunc nuw i8 %8 to i1
  br i1 %9, label %10, label %12

10:                                               ; preds = %.lr.ph
  %11 = load ptr, ptr %4, align 8, !tbaa !24
  %.not12 = icmp eq ptr %11, %.014
  br i1 %.not12, label %12, label %22

12:                                               ; preds = %10, %.lr.ph
  %13 = getelementptr inbounds nuw i8, ptr %.014, i64 24
  %14 = load ptr, ptr %13, align 8, !tbaa !10
  %.not.i = icmp eq ptr %14, null
  br i1 %.not.i, label %.preheader.i, label %15

.preheader.i:                                     ; preds = %12, %.preheader.i
  br label %.preheader.i

15:                                               ; preds = %12
  %16 = getelementptr inbounds nuw i8, ptr %.014, i64 16
  %17 = load ptr, ptr %16, align 8, !tbaa !26
  %.not5.i = icmp eq ptr %17, null
  br i1 %.not5.i, label %item_create_obj.exit, label %18

18:                                               ; preds = %15
  %19 = load ptr, ptr %17, align 8, !tbaa !27
  br label %item_create_obj.exit

item_create_obj.exit:                             ; preds = %15, %18
  %20 = phi ptr [ %19, %18 ], [ null, %15 ]
  %21 = tail call ptr @lv_fragment_create_obj(ptr noundef nonnull %14, ptr noundef %20) #3
  br label %22

22:                                               ; preds = %10, %item_create_obj.exit
  %23 = tail call ptr @lv_ll_get_next(ptr noundef nonnull %5, ptr noundef nonnull %.014) #3
  %.not11 = icmp eq ptr %23, null
  br i1 %.not11, label %._crit_edge, label %.lr.ph, !llvm.loop !28

._crit_edge:                                      ; preds = %22, %2
  ret void
}